target datalayout = "e-m:e-p270:32:32-p271:32:32-p272:64:64-i64:64-i128:128-f80:128-n8:16:32:64-S128"
target triple = "x86_64-pc-linux-gnu"

%struct._zend_accel_globals = type { i8, i8, i8, i8, i8, %struct._zend_accel_directives, ptr, ptr, [32 x i8], [32 x i8], i32, i8, i32, i8, i32, i64, i64, %struct._zend_array, i64, ptr, ptr, ptr, ptr, ptr }
%struct._zend_accel_directives = type { i64, i64, double, ptr, i64, i8, i8, i8, i8, i8, i8, i8, i8, i8, i8, i8, i64, i64, ptr, ptr, i64, i64, i64, i64, i64, ptr, ptr, ptr, i8, i8, i8, i8, ptr, ptr }
%struct._zend_array = type { %struct._zend_refcounted_h, %union.anon.0, i32, %union.anon.1, i32, i32, i32, i32, i64, ptr }
%struct._zend_refcounted_h = type { i32, %union.anon }
%union.anon = type { i32 }
%union.anon.0 = type { i32 }
%union.anon.1 = type { ptr }
%struct._zend_signal_globals_t = type { i32, i32, i32, i32, i8, i8, [65 x %struct._zend_signal_entry_t], [64 x %struct._zend_signal_queue_t], ptr, ptr, ptr }
%struct._zend_signal_entry_t = type { i32, ptr }
%struct._zend_signal_queue_t = type { %struct._zend_signal_t, ptr }
%struct._zend_signal_t = type { i32, ptr, ptr }
%struct._zend_accel_shared_globals = type { i64, i64, i64, i64, i64, i64, %struct._zend_accel_hash, i64, i64, i64, i64, i8, i8, i32, i8, i8, i8, ptr, ptr, [2 x i32], ptr, ptr, %struct._zend_string_table }
%struct._zend_accel_hash = type { ptr, ptr, i32, i32, i32 }
%struct._zend_string_table = type { i32, i32, ptr, ptr, ptr, ptr }

@accel_shared_globals = hidden global ptr null, align 8
@accel_globals = hidden global %struct._zend_accel_globals zeroinitializer, align 8
@zend_signal_globals = external global %struct._zend_signal_globals_t, align 8
@__const.zend_accel_schedule_restart.zend_accel_restart_reason_text = private unnamed_addr constant [3 x ptr] [ptr @.str.9, ptr @.str.10, ptr @.str.11], align 16
@zend_accel_schedule_restart_hook = external global ptr, align 8
@.str.12 = private unnamed_addr constant [30 x i8] c"Restart Scheduled! Reason: %s\00", align 1

; Function Attrs: nounwind uwtable
define hidden void @zend_accel_schedule_restart(i32 noundef %0) #0 {
  %2 = alloca i32, align 4
  %3 = alloca [3 x ptr], align 16
  %4 = alloca i32, align 4
  store i32 %0, ptr %2, align 4, !tbaa !4
  call void @llvm.lifetime.start.p0(i64 24, ptr %3) #19
  call void @llvm.memcpy.p0.p0.i64(ptr align 16 %3, ptr align 16 @__const.zend_accel_schedule_restart.zend_accel_restart_reason_text, i64 24, i1 false)
  %5 = load ptr, ptr @accel_shared_globals, align 8, !tbaa !29
  %6 = getelementptr inbounds nuw %struct._zend_accel_shared_globals, ptr %5, i32 0, i32 12
  %7 = load i8, ptr %6, align 1, !tbaa !31, !range !38, !noundef !39
  %8 = trunc i8 %7 to i1
  br i1 %8, label %9, label %10

9:                                                ; preds = %1
  store i32 1, ptr %4, align 4
  br label %75

10:                                               ; preds = %1
  %11 = load ptr, ptr @zend_accel_schedule_restart_hook, align 8, !tbaa !40
  %12 = icmp ne ptr %11, null
  %13 = xor i1 %12, true
  %14 = xor i1 %13, true
  %15 = zext i1 %14 to i32
  %16 = sext i32 %15 to i64
  %17 = call i64 @llvm.expect.i64(i64 %16, i64 0)
  %18 = icmp ne i64 %17, 0
  br i1 %18, label %19, label %22

19:                                               ; preds = %10
  %20 = load ptr, ptr @zend_accel_schedule_restart_hook, align 8, !tbaa !40
  %21 = load i32, ptr %2, align 4, !tbaa !4
  call void %20(i32 noundef %21)
  br label %22

22:                                               ; preds = %19, %10
  %23 = load i32, ptr %2, align 4, !tbaa !4
  %24 = zext i32 %23 to i64
  %25 = getelementptr inbounds nuw [3 x ptr], ptr %3, i64 0, i64 %24
  %26 = load ptr, ptr %25, align 8, !tbaa !41
  call void (i32, ptr, ...) @zend_accel_error(i32 noundef 4, ptr noundef @.str.12, ptr noundef %26)
  %27 = load i32, ptr @zend_signal_globals, align 8, !tbaa !42
  %28 = add nsw i32 %27, 1
  store i32 %28, ptr @zend_signal_globals, align 8, !tbaa !42
  br label %29

29:                                               ; preds = %22
  %30 = load i8, ptr getelementptr inbounds nuw (%struct._zend_accel_directives, ptr getelementptr inbounds nuw (%struct._zend_accel_globals, ptr @accel_globals, i32 0, i32 5), i32 0, i32 11), align 2, !tbaa !45, !range !38, !noundef !39
  %31 = trunc i8 %30 to i1
  br i1 %31, label %32, label %33

32:                                               ; preds = %29
  call void @zend_accel_shared_protect(i1 noundef zeroext false)
  br label %33

33:                                               ; preds = %32, %29
  br label %34

34:                                               ; preds = %33
  br label %35

35:                                               ; preds = %34
  %36 = load ptr, ptr @accel_shared_globals, align 8, !tbaa !29
  %37 = getelementptr inbounds nuw %struct._zend_accel_shared_globals, ptr %36, i32 0, i32 12
  store i8 1, ptr %37, align 1, !tbaa !31
  %38 = load i32, ptr %2, align 4, !tbaa !4
  %39 = load ptr, ptr @accel_shared_globals, align 8, !tbaa !29
  %40 = getelementptr inbounds nuw %struct._zend_accel_shared_globals, ptr %39, i32 0, i32 13
  store i32 %38, ptr %40, align 4, !tbaa !46
  %41 = load ptr, ptr @accel_shared_globals, align 8, !tbaa !29
  %42 = getelementptr inbounds nuw %struct._zend_accel_shared_globals, ptr %41, i32 0, i32 11
  %43 = load i8, ptr %42, align 8, !tbaa !47, !range !38, !noundef !39
  %44 = trunc i8 %43 to i1
  %45 = load ptr, ptr @accel_shared_globals, align 8, !tbaa !29
  %46 = getelementptr inbounds nuw %struct._zend_accel_shared_globals, ptr %45, i32 0, i32 14
  %47 = zext i1 %44 to i8
  store i8 %47, ptr %46, align 8, !tbaa !48
  %48 = load ptr, ptr @accel_shared_globals, align 8, !tbaa !29
  %49 = getelementptr inbounds nuw %struct._zend_accel_shared_globals, ptr %48, i32 0, i32 11
  store i8 0, ptr %49, align 8, !tbaa !47
  %50 = load i64, ptr getelementptr inbounds nuw (%struct._zend_accel_directives, ptr getelementptr inbounds nuw (%struct._zend_accel_globals, ptr @accel_globals, i32 0, i32 5), i32 0, i32 4), align 8, !tbaa !49
  %51 = icmp ne i64 %50, 0
  br i1 %51, label %52, label %58

52:                                               ; preds = %35
  %53 = call i64 @time(ptr noundef null) #19
  %54 = load i64, ptr getelementptr inbounds nuw (%struct._zend_accel_directives, ptr getelementptr inbounds nuw (%struct._zend_accel_globals, ptr @accel_globals, i32 0, i32 5), i32 0, i32 4), align 8, !tbaa !49
  %55 = add nsw i64 %53, %54
  %56 = load ptr, ptr @accel_shared_globals, align 8, !tbaa !29
  %57 = getelementptr inbounds nuw %struct._zend_accel_shared_globals, ptr %56, i32 0, i32 10
  store i64 %55, ptr %57, align 8, !tbaa !50
  br label %61

58:                                               ; preds = %35
  %59 = load ptr, ptr @accel_shared_globals, align 8, !tbaa !29
  %60 = getelementptr inbounds nuw %struct._zend_accel_shared_globals, ptr %59, i32 0, i32 10
  store i64 0, ptr %60, align 8, !tbaa !50
  br label %61

61:                                               ; preds = %58, %52
  br label %62

62:                                               ; preds = %61
  %63 = load i8, ptr getelementptr inbounds nuw (%struct._zend_accel_directives, ptr getelementptr inbounds nuw (%struct._zend_accel_globals, ptr @accel_globals, i32 0, i32 5), i32 0, i32 11), align 2, !tbaa !45, !range !38, !noundef !39
  %64 = trunc i8 %63 to i1
  br i1 %64, label %65, label %66

65:                                               ; preds = %62
  call void @zend_accel_shared_protect(i1 noundef zeroext true)
  br label %66

66:                                               ; preds = %65, %62
  br label %67

67:                                               ; preds = %66
  br label %68

68:                                               ; preds = %67
  %69 = load i32, ptr @zend_signal_globals, align 8, !tbaa !42
  %70 = add nsw i32 %69, -1
  store i32 %70, ptr @zend_signal_globals, align 8, !tbaa !42
  %71 = load i32, ptr getelementptr inbounds nuw (%struct._zend_signal_globals_t, ptr @zend_signal_globals, i32 0, i32 1), align 4, !tbaa !51
  %72 = icmp eq i32 %69, %71
  br i1 %72, label %73, label %74

73:                                               ; preds = %68
  call void @zend_signal_handler_unblock()
  br label %74

74:                                               ; preds = %73, %68
  store i32 0, ptr %4, align 4
  br label %75

75:                                               ; preds = %74, %9
  call void @llvm.lifetime.end.p0(i64 24, ptr %3) #19
  %76 = load i32, ptr %4, align 4
  switch i32 %76, label %78 [
    i32 0, label %77
    i32 1, label %77
  ]

77:                                               ; preds = %75, %75
  ret void

78:                                               ; preds = %75
  unreachable
}