; Function Attrs: nounwind uwtable
define hidden void @zend_accel_schedule_restart(i32 noundef %0) local_unnamed_addr #0 {
  %2 = load ptr, ptr @accel_shared_globals, align 8, !tbaa !28
  %3 = getelementptr inbounds nuw i8, ptr %2, i64 113
  %4 = load i8, ptr %3, align 1, !tbaa !30, !range !37, !noundef !38
  %5 = trunc nuw i8 %4 to i1
  br i1 %5, label %42, label %6

6:                                                ; preds = %1
  %7 = load ptr, ptr @zend_accel_schedule_restart_hook, align 8, !tbaa !39
  %.not = icmp eq ptr %7, null
  br i1 %.not, label %9, label %8, !prof !40

8:                                                ; preds = %6
  tail call void %7(i32 noundef %0) #26
  br label %9

9:                                                ; preds = %8, %6
  %10 = zext i32 %0 to i64
  %11 = getelementptr inbounds nuw [3 x ptr], ptr @__const.zend_accel_schedule_restart.zend_accel_restart_reason_text, i64 0, i64 %10
  %12 = load ptr, ptr %11, align 8, !tbaa !41
  tail call void (i32, ptr, ...) @zend_accel_error(i32 noundef 4, ptr noundef nonnull @.str.12, ptr noundef %12) #26
  %13 = load i32, ptr @zend_signal_globals, align 8, !tbaa !42
  %14 = add nsw i32 %13, 1
  store i32 %14, ptr @zend_signal_globals, align 8, !tbaa !42
  %15 = load i8, ptr getelementptr inbounds nuw (i8, ptr @accel_globals, i64 54), align 2, !tbaa !45, !range !37, !noundef !38
  %16 = trunc nuw i8 %15 to i1
  br i1 %16, label %17, label %18

17:                                               ; preds = %9
  tail call void @zend_accel_shared_protect(i1 noundef zeroext false) #26
  br label %18

18:                                               ; preds = %17, %9
  %19 = load ptr, ptr @accel_shared_globals, align 8, !tbaa !28
  %20 = getelementptr inbounds nuw i8, ptr %19, i64 113
  store i8 1, ptr %20, align 1, !tbaa !30
  %21 = getelementptr inbounds nuw i8, ptr %19, i64 116
  store i32 %0, ptr %21, align 4, !tbaa !46
  %22 = getelementptr inbounds nuw i8, ptr %19, i64 112
  %23 = load i8, ptr %22, align 8, !tbaa !47, !range !37, !noundef !38
  %24 = getelementptr inbounds nuw i8, ptr %19, i64 120
  store i8 %23, ptr %24, align 8, !tbaa !48
  store i8 0, ptr %22, align 8, !tbaa !47
  %25 = load i64, ptr getelementptr inbounds nuw (i8, ptr @accel_globals, i64 40), align 8, !tbaa !49
  %.not3 = icmp eq i64 %25, 0
  br i1 %.not3, label %31, label %26

26:                                               ; preds = %18
  %27 = tail call i64 @time(ptr noundef null) #26
  %28 = load i64, ptr getelementptr inbounds nuw (i8, ptr @accel_globals, i64 40), align 8, !tbaa !49
  %29 = add nsw i64 %28, %27
  %30 = load ptr, ptr @accel_shared_globals, align 8, !tbaa !28
  br label %31

31:                                               ; preds = %18, %26
  %.sink5 = phi ptr [ %30, %26 ], [ %19, %18 ]
  %.sink = phi i64 [ %29, %26 ], [ 0, %18 ]
  %32 = getelementptr inbounds nuw i8, ptr %.sink5, i64 104
  store i64 %.sink, ptr %32, align 8, !tbaa !50
  %33 = load i8, ptr getelementptr inbounds nuw (i8, ptr @accel_globals, i64 54), align 2, !tbaa !45, !range !37, !noundef !38
  %34 = trunc nuw i8 %33 to i1
  br i1 %34, label %35, label %36

35:                                               ; preds = %31
  tail call void @zend_accel_shared_protect(i1 noundef zeroext true) #26
  br label %36

36:                                               ; preds = %35, %31
  %37 = load i32, ptr @zend_signal_globals, align 8, !tbaa !42
  %38 = add nsw i32 %37, -1
  store i32 %38, ptr @zend_signal_globals, align 8, !tbaa !42
  %39 = load i32, ptr getelementptr inbounds nuw (i8, ptr @zend_signal_globals, i64 4), align 4, !tbaa !51
  %40 = icmp eq i32 %37, %39
  br i1 %40, label %41, label %42

41:                                               ; preds = %36
  tail call void @zend_signal_handler_unblock() #26
  br label %42

42:                                               ; preds = %36, %41, %1
  ret void
}